target datalayout = "e-m:e-p270:32:32-p271:32:32-p272:64:64-i64:64-i128:128-f80:128-n8:16:32:64-S128"
target triple = "x86_64-unknown-linux-gnu"

%"class.nla::emonics" = type { %class.trail_stack, %class.union_find, %class.svector, ptr, %class.vector.1, %class.svector, i32, %class.svector.2, %"struct.nla::emonics::hash_canonical", %"struct.nla::emonics::eq_canonical", %class.map }
%class.trail_stack = type { %class.ptr_vector, %class.svector, %class.region }
%class.ptr_vector = type { %class.vector }
%class.vector = type { ptr }
%class.region = type { ptr, ptr, ptr, ptr, ptr }
%class.union_find = type { ptr, ptr, %class.svector, %class.svector, %class.svector, %"class.union_find<nla::emonics>::mk_var_trail" }
%"class.union_find<nla::emonics>::mk_var_trail" = type { %class.trail, ptr }
%class.trail = type { ptr }
%class.vector.1 = type { ptr }
%class.svector = type { %class.vector.0 }
%class.vector.0 = type { ptr }
%class.svector.2 = type { %class.vector.3 }
%class.vector.3 = type { ptr }
%"struct.nla::emonics::hash_canonical" = type { ptr }
%"struct.nla::emonics::eq_canonical" = type { ptr }
%class.map = type { %class.table2map }
%class.table2map = type { %class.core_hashtable }
%class.core_hashtable = type <{ %"struct.table2map<default_map_entry<unsigned int, svector<unsigned int>>, nla::emonics::hash_canonical, nla::emonics::eq_canonical>::entry_hash_proc", %"struct.table2map<default_map_entry<unsigned int, svector<unsigned int>>, nla::emonics::hash_canonical, nla::emonics::eq_canonical>::entry_eq_proc", ptr, i32, i32, i32, [4 x i8] }>
%"struct.table2map<default_map_entry<unsigned int, svector<unsigned int>>, nla::emonics::hash_canonical, nla::emonics::eq_canonical>::entry_hash_proc" = type { %"struct.nla::emonics::hash_canonical" }
%"struct.table2map<default_map_entry<unsigned int, svector<unsigned int>>, nla::emonics::hash_canonical, nla::emonics::eq_canonical>::entry_eq_proc" = type { %"struct.nla::emonics::eq_canonical" }

@.str.10 = private unnamed_addr constant [4 x i8] c"uf\0A\00", align 1
@.str.11 = private unnamed_addr constant [4 x i8] c"ve\0A\00", align 1

; Function Attrs: mustprogress uwtable
define hidden noundef nonnull align 8 dereferenceable(8) ptr @_ZNK3nla7emonics10display_ufERSo(ptr noundef nonnull align 8 dereferenceable(216) %this, ptr noundef nonnull align 8 dereferenceable(8) %out) #5 align 2 {
entry:
  %this.addr = alloca ptr, align 8
  %out.addr = alloca ptr, align 8
  store ptr %this, ptr %this.addr, align 8
  store ptr %out, ptr %out.addr, align 8
  %this1 = load ptr, ptr %this.addr, align 8
  %m_u_f = getelementptr inbounds %"class.nla::emonics", ptr %this1, i32 0, i32 1
  %0 = load ptr, ptr %out.addr, align 8
  %call = call noundef nonnull align 8 dereferenceable(8) ptr @_ZStlsISt11char_traitsIcEERSt13basic_ostreamIcT_ES5_PKc(ptr noundef nonnull align 8 dereferenceable(8) %0, ptr noundef @.str.10)
  call void @_ZNK10union_findIN3nla7emonicsES1_E7displayERSo(ptr noundef nonnull align 8 dereferenceable(56) %m_u_f, ptr noundef nonnull align 8 dereferenceable(8) %call)
  %m_ve = getelementptr inbounds %"class.nla::emonics", ptr %this1, i32 0, i32 3
  %1 = load ptr, ptr %m_ve, align 8
  %2 = load ptr, ptr %out.addr, align 8
  %call2 = call noundef nonnull align 8 dereferenceable(8) ptr @_ZStlsISt11char_traitsIcEERSt13basic_ostreamIcT_ES5_PKc(ptr noundef nonnull align 8 dereferenceable(8) %2, ptr noundef @.str.11)
  %call3 = call noundef nonnull align 8 dereferenceable(8) ptr @_ZNK3nla7var_eqsINS_7emonicsEE7displayERSo(ptr noundef nonnull align 8 dereferenceable(184) %1, ptr noundef nonnull align 8 dereferenceable(8) %call2)
  %3 = load ptr, ptr %out.addr, align 8
  ret ptr %3
}