; Function Attrs: mustprogress uwtable
define hidden noundef nonnull align 8 dereferenceable(8) ptr @_ZNK3nla7emonics10display_ufERSo(ptr noundef nonnull align 8 dereferenceable(216) %this, ptr noundef nonnull returned align 8 dereferenceable(8) %out) local_unnamed_addr #4 align 2 {
entry:
  %m_u_f = getelementptr inbounds i8, ptr %this, i64 56
  %call = tail call noundef nonnull align 8 dereferenceable(8) ptr @_ZStlsISt11char_traitsIcEERSt13basic_ostreamIcT_ES5_PKc(ptr noundef nonnull align 8 dereferenceable(8) %out, ptr noundef nonnull @.str.10)
  tail call void @_ZNK10union_findIN3nla7emonicsES1_E7displayERSo(ptr noundef nonnull align 8 dereferenceable(56) %m_u_f, ptr noundef nonnull align 8 dereferenceable(8) %call)
  %m_ve = getelementptr inbounds i8, ptr %this, i64 120
  %0 = load ptr, ptr %m_ve, align 8
  %call2 = tail call noundef nonnull align 8 dereferenceable(8) ptr @_ZStlsISt11char_traitsIcEERSt13basic_ostreamIcT_ES5_PKc(ptr noundef nonnull align 8 dereferenceable(8) %out, ptr noundef nonnull @.str.11)
  %call3 = tail call noundef nonnull align 8 dereferenceable(8) ptr @_ZNK3nla7var_eqsINS_7emonicsEE7displayERSo(ptr noundef nonnull align 8 dereferenceable(184) %0, ptr noundef nonnull align 8 dereferenceable(8) %call2)
  ret ptr %out
}